target datalayout = "e-m:e-p270:32:32-p271:32:32-p272:64:64-i64:64-i128:128-f80:128-n8:16:32:64-S128"
target triple = "x86_64-pc-linux-gnu"

%"struct.std::array" = type { [2 x i64] }

; Function Attrs: mustprogress nounwind uwtable
define linkonce_odr dso_local noundef nonnull align 8 dereferenceable(8) ptr @_ZNSt14__array_traitsImLm2EE6_S_refERA2_Kmm(ptr noundef nonnull align 8 dereferenceable(16) %0, i64 noundef %1) #4 comdat align 2 {
  %3 = alloca ptr, align 8
  %4 = alloca i64, align 8
  store ptr %0, ptr %3, align 8, !tbaa !119
  store i64 %1, ptr %4, align 8, !tbaa !17
  %5 = load ptr, ptr %3, align 8, !tbaa !119
  %6 = load i64, ptr %4, align 8, !tbaa !17
  %7 = getelementptr inbounds nuw [2 x i64], ptr %5, i64 0, i64 %6
  ret ptr %7
}

; Function Attrs: mustprogress nounwind uwtable
define linkonce_odr dso_local noundef nonnull align 8 dereferenceable(8) ptr @_ZNSt5arrayImLm2EEixEm(ptr noundef nonnull align 8 dereferenceable(16) %0, i64 noundef %1) #4 comdat align 2 {
  %3 = alloca ptr, align 8
  %4 = alloca i64, align 8
  store ptr %0, ptr %3, align 8, !tbaa !70
  store i64 %1, ptr %4, align 8, !tbaa !17
  %5 = load ptr, ptr %3, align 8
  %6 = getelementptr inbounds nuw %"struct.std::array", ptr %5, i32 0, i32 0
  %7 = load i64, ptr %4, align 8, !tbaa !17
  %8 = call noundef nonnull align 8 dereferenceable(8) ptr @_ZNSt14__array_traitsImLm2EE6_S_refERA2_Kmm(ptr noundef nonnull align 8 dereferenceable(16) %6, i64 noundef %7) #3
  ret ptr %8
}

; Function Attrs: mustprogress nounwind uwtable
define dso_local noundef i64 @_ZN4V3Os6rand64ERSt5arrayImLm2EE(ptr noundef nonnull align 8 dereferenceable(16) %0) #4 align 2 {
  %2 = alloca ptr, align 8
  %3 = alloca i64, align 8
  store ptr %0, ptr %2, align 8, !tbaa !70
  call void @llvm.lifetime.start.p0(i64 8, ptr %3) #3
  %4 = load ptr, ptr %2, align 8, !tbaa !70
  %5 = call noundef nonnull align 8 dereferenceable(8) ptr @_ZNSt5arrayImLm2EEixEm(ptr noundef nonnull align 8 dereferenceable(16) %4, i64 noundef 0) #3
  %6 = load i64, ptr %5, align 8, !tbaa !17
  %7 = load ptr, ptr %2, align 8, !tbaa !70
  %8 = call noundef nonnull align 8 dereferenceable(8) ptr @_ZNSt5arrayImLm2EEixEm(ptr noundef nonnull align 8 dereferenceable(16) %7, i64 noundef 1) #3
  %9 = load i64, ptr %8, align 8, !tbaa !17
  %10 = add i64 %6, %9
  store i64 %10, ptr %3, align 8, !tbaa !17
  %11 = load ptr, ptr %2, align 8, !tbaa !70
  %12 = call noundef nonnull align 8 dereferenceable(8) ptr @_ZNSt5arrayImLm2EEixEm(ptr noundef nonnull align 8 dereferenceable(16) %11, i64 noundef 0) #3
  %13 = load i64, ptr %12, align 8, !tbaa !17
  %14 = load ptr, ptr %2, align 8, !tbaa !70
  %15 = call noundef nonnull align 8 dereferenceable(8) ptr @_ZNSt5arrayImLm2EEixEm(ptr noundef nonnull align 8 dereferenceable(16) %14, i64 noundef 1) #3
  %16 = load i64, ptr %15, align 8, !tbaa !17
  %17 = xor i64 %16, %13
  store i64 %17, ptr %15, align 8, !tbaa !17
  %18 = load ptr, ptr %2, align 8, !tbaa !70
  %19 = call noundef nonnull align 8 dereferenceable(8) ptr @_ZNSt5arrayImLm2EEixEm(ptr noundef nonnull align 8 dereferenceable(16) %18, i64 noundef 0) #3
  %20 = load i64, ptr %19, align 8, !tbaa !17
  %21 = shl i64 %20, 55
  %22 = load ptr, ptr %2, align 8, !tbaa !70
  %23 = call noundef nonnull align 8 dereferenceable(8) ptr @_ZNSt5arrayImLm2EEixEm(ptr noundef nonnull align 8 dereferenceable(16) %22, i64 noundef 0) #3
  %24 = load i64, ptr %23, align 8, !tbaa !17
  %25 = lshr i64 %24, 9
  %26 = or i64 %21, %25
  %27 = load ptr, ptr %2, align 8, !tbaa !70
  %28 = call noundef nonnull align 8 dereferenceable(8) ptr @_ZNSt5arrayImLm2EEixEm(ptr noundef nonnull align 8 dereferenceable(16) %27, i64 noundef 1) #3
  %29 = load i64, ptr %28, align 8, !tbaa !17
  %30 = xor i64 %26, %29
  %31 = load ptr, ptr %2, align 8, !tbaa !70
  %32 = call noundef nonnull align 8 dereferenceable(8) ptr @_ZNSt5arrayImLm2EEixEm(ptr noundef nonnull align 8 dereferenceable(16) %31, i64 noundef 1) #3
  %33 = load i64, ptr %32, align 8, !tbaa !17
  %34 = shl i64 %33, 14
  %35 = xor i64 %30, %34
  %36 = load ptr, ptr %2, align 8, !tbaa !70
  %37 = call noundef nonnull align 8 dereferenceable(8) ptr @_ZNSt5arrayImLm2EEixEm(ptr noundef nonnull align 8 dereferenceable(16) %36, i64 noundef 0) #3
  store i64 %35, ptr %37, align 8, !tbaa !17
  %38 = load ptr, ptr %2, align 8, !tbaa !70
  %39 = call noundef nonnull align 8 dereferenceable(8) ptr @_ZNSt5arrayImLm2EEixEm(ptr noundef nonnull align 8 dereferenceable(16) %38, i64 noundef 1) #3
  %40 = load i64, ptr %39, align 8, !tbaa !17
  %41 = shl i64 %40, 36
  %42 = load ptr, ptr %2, align 8, !tbaa !70
  %43 = call noundef nonnull align 8 dereferenceable(8) ptr @_ZNSt5arrayImLm2EEixEm(ptr noundef nonnull align 8 dereferenceable(16) %42, i64 noundef 1) #3
  %44 = load i64, ptr %43, align 8, !tbaa !17
  %45 = lshr i64 %44, 28
  %46 = or i64 %41, %45
  %47 = load ptr, ptr %2, align 8, !tbaa !70
  %48 = call noundef nonnull align 8 dereferenceable(8) ptr @_ZNSt5arrayImLm2EEixEm(ptr noundef nonnull align 8 dereferenceable(16) %47, i64 noundef 1) #3
  store i64 %46, ptr %48, align 8, !tbaa !17
  %49 = load i64, ptr %3, align 8, !tbaa !17
  call void @llvm.lifetime.end.p0(i64 8, ptr %3) #3
  ret i64 %49
}