; Function Attrs: mustprogress nofree norecurse nosync nounwind willreturn memory(argmem: readwrite) uwtable
define dso_local noundef i64 @_ZN4V3Os6rand64ERSt5arrayImLm2EE(ptr noundef nonnull align 8 captures(none) dereferenceable(16) %0) local_unnamed_addr #18 align 2 {
  %2 = load i64, ptr %0, align 8, !tbaa !11
  %3 = getelementptr inbounds nuw i8, ptr %0, i64 8
  %4 = load i64, ptr %3, align 8, !tbaa !11
  %5 = add i64 %4, %2
  %6 = xor i64 %4, %2
  %7 = tail call i64 @llvm.fshl.i64(i64 %2, i64 %2, i64 55)
  %8 = shl i64 %6, 14
  %9 = xor i64 %7, %8
  %10 = xor i64 %9, %6
  store i64 %10, ptr %0, align 8, !tbaa !11
  %11 = tail call i64 @llvm.fshl.i64(i64 %6, i64 %6, i64 36)
  store i64 %11, ptr %3, align 8, !tbaa !11
  ret i64 %5
}